; ModuleID = '55/509.c'
source_filename = "55/509.c"
target datalayout = "e-m:e-p270:32:32-p271:32:32-p272:64:64-i64:64-f80:128-n8:16:32:64-S128"
target triple = "x86_64-pc-linux-gnu"

@.str = private unnamed_addr constant [9 x i8] c"%d %s %d\00", align 1
@.str.1 = private unnamed_addr constant [2 x i8] c"0\00", align 1
@.str.2 = private unnamed_addr constant [3 x i8] c"%c\00", align 1
@.str.3 = private unnamed_addr constant [2 x i8] c"\0A\00", align 1

; Function Attrs: noinline nounwind uwtable
define dso_local void @main() #0 {
  %1 = alloca i64, align 8
  %2 = alloca [11 x i8], align 1
  %3 = alloca [11 x i8], align 1
  %4 = alloca i32, align 4
  %5 = alloca i32, align 4
  %6 = alloca i32, align 4
  %7 = alloca i32, align 4
  %8 = alloca i32, align 4
  store i64 0, i64* %1, align 8
  %9 = bitcast [11 x i8]* %3 to i8*
  call void @llvm.memset.p0i8.i64(i8* align 1 %9, i8 0, i64 11, i1 false)
  %10 = getelementptr inbounds [11 x i8], [11 x i8]* %2, i64 0, i64 0
  %11 = call i32 (i8*, ...) @__isoc99_scanf(i8* getelementptr inbounds ([9 x i8], [9 x i8]* @.str, i64 0, i64 0), i32* %4, i8* %10, i32* %5)
  %12 = getelementptr inbounds [11 x i8], [11 x i8]* %2, i64 0, i64 0
  %13 = call i64 @strlen(i8* %12) #4
  %14 = trunc i64 %13 to i32
  store i32 %14, i32* %8, align 4
  store i32 0, i32* %6, align 4
  br label %15

15:                                               ; preds = %32, %0
  %16 = load i32, i32* %6, align 4
  %17 = load i32, i32* %8, align 4
  %18 = sub nsw i32 %17, 1
  %19 = icmp sle i32 %16, %18
  br i1 %19, label %20, label %35

20:                                               ; preds = %15
  %21 = load i32, i32* %6, align 4
  %22 = sext i32 %21 to i64
  %23 = getelementptr inbounds [11 x i8], [11 x i8]* %2, i64 0, i64 %22
  %24 = load i8, i8* %23, align 1
  %25 = call i32 @f1(i8 signext %24)
  %26 = sext i32 %25 to i64
  %27 = load i64, i64* %1, align 8
  %28 = load i32, i32* %4, align 4
  %29 = sext i32 %28 to i64
  %30 = mul nsw i64 %27, %29
  %31 = add nsw i64 %26, %30
  store i64 %31, i64* %1, align 8
  br label %32

32:                                               ; preds = %20
  %33 = load i32, i32* %6, align 4
  %34 = add nsw i32 %33, 1
  store i32 %34, i32* %6, align 4
  br label %15

35:                                               ; preds = %15
  store i32 0, i32* %8, align 4
  %36 = load i64, i64* %1, align 8
  %37 = icmp eq i64 %36, 0
  br i1 %37, label %38, label %40

38:                                               ; preds = %35
  %39 = call i32 (i8*, ...) @printf(i8* getelementptr inbounds ([2 x i8], [2 x i8]* @.str.1, i64 0, i64 0))
  br label %40

40:                                               ; preds = %38, %35
  br label %41

41:                                               ; preds = %44, %40
  %42 = load i64, i64* %1, align 8
  %43 = icmp ne i64 %42, 0
  br i1 %43, label %44, label %64

44:                                               ; preds = %41
  %45 = load i64, i64* %1, align 8
  %46 = load i32, i32* %5, align 4
  %47 = sext i32 %46 to i64
  %48 = srem i64 %45, %47
  %49 = trunc i64 %48 to i32
  store i32 %49, i32* %7, align 4
  %50 = load i64, i64* %1, align 8
  %51 = load i32, i32* %7, align 4
  %52 = sext i32 %51 to i64
  %53 = sub nsw i64 %50, %52
  %54 = load i32, i32* %5, align 4
  %55 = sext i32 %54 to i64
  %56 = sdiv i64 %53, %55
  store i64 %56, i64* %1, align 8
  %57 = load i32, i32* %7, align 4
  %58 = call signext i8 @f2(i32 %57)
  %59 = load i32, i32* %8, align 4
  %60 = sext i32 %59 to i64
  %61 = getelementptr inbounds [11 x i8], [11 x i8]* %3, i64 0, i64 %60
  store i8 %58, i8* %61, align 1
  %62 = load i32, i32* %8, align 4
  %63 = add nsw i32 %62, 1
  store i32 %63, i32* %8, align 4
  br label %41

64:                                               ; preds = %41
  %65 = load i32, i32* %8, align 4
  %66 = sub nsw i32 %65, 1
  store i32 %66, i32* %6, align 4
  br label %67

67:                                               ; preds = %77, %64
  %68 = load i32, i32* %6, align 4
  %69 = icmp sge i32 %68, 0
  br i1 %69, label %70, label %80

70:                                               ; preds = %67
  %71 = load i32, i32* %6, align 4
  %72 = sext i32 %71 to i64
  %73 = getelementptr inbounds [11 x i8], [11 x i8]* %3, i64 0, i64 %72
  %74 = load i8, i8* %73, align 1
  %75 = sext i8 %74 to i32
  %76 = call i32 (i8*, ...) @printf(i8* getelementptr inbounds ([3 x i8], [3 x i8]* @.str.2, i64 0, i64 0), i32 %75)
  br label %77

77:                                               ; preds = %70
  %78 = load i32, i32* %6, align 4
  %79 = add nsw i32 %78, -1
  store i32 %79, i32* %6, align 4
  br label %67

80:                                               ; preds = %67
  %81 = call i32 (i8*, ...) @printf(i8* getelementptr inbounds ([2 x i8], [2 x i8]* @.str.3, i64 0, i64 0))
  ret void
}

; Function Attrs: argmemonly nounwind willreturn
declare void @llvm.memset.p0i8.i64(i8* nocapture writeonly, i8, i64, i1 immarg) #1

declare dso_local i32 @__isoc99_scanf(i8*, ...) #2

; Function Attrs: nounwind readonly
declare dso_local i64 @strlen(i8*) #3

; Function Attrs: noinline nounwind uwtable
define dso_local i32 @f1(i8 signext %0) #0 {
  %2 = alloca i8, align 1
  %3 = alloca i32, align 4
  store i8 %0, i8* %2, align 1
  %4 = load i8, i8* %2, align 1
  %5 = sext i8 %4 to i32
  %6 = icmp sge i32 %5, 48
  br i1 %6, label %7, label %15

7:                                                ; preds = %1
  %8 = load i8, i8* %2, align 1
  %9 = sext i8 %8 to i32
  %10 = icmp sle i32 %9, 57
  br i1 %10, label %11, label %15

11:                                               ; preds = %7
  %12 = load i8, i8* %2, align 1
  %13 = sext i8 %12 to i32
  %14 = sub nsw i32 %13, 48
  store i32 %14, i32* %3, align 4
  br label %32

15:                                               ; preds = %7, %1
  %16 = load i8, i8* %2, align 1
  %17 = sext i8 %16 to i32
  %18 = icmp sge i32 %17, 55
  br i1 %18, label %19, label %27

19:                                               ; preds = %15
  %20 = load i8, i8* %2, align 1
  %21 = sext i8 %20 to i32
  %22 = icmp sle i32 %21, 90
  br i1 %22, label %23, label %27

23:                                               ; preds = %19
  %24 = load i8, i8* %2, align 1
  %25 = sext i8 %24 to i32
  %26 = sub nsw i32 %25, 55
  store i32 %26, i32* %3, align 4
  br label %31

27:                                               ; preds = %19, %15
  %28 = load i8, i8* %2, align 1
  %29 = sext i8 %28 to i32
  %30 = sub nsw i32 %29, 87
  store i32 %30, i32* %3, align 4
  br label %31

31:                                               ; preds = %27, %23
  br label %32

32:                                               ; preds = %31, %11
  %33 = load i32, i32* %3, align 4
  ret i32 %33
}

declare dso_local i32 @printf(i8*, ...) #2

; Function Attrs: noinline nounwind uwtable
define dso_local signext i8 @f2(i32 %0) #0 {
  %2 = alloca i32, align 4
  %3 = alloca i8, align 1
  store i32 %0, i32* %2, align 4
  %4 = load i32, i32* %2, align 4
  %5 = icmp sge i32 %4, 0
  br i1 %5, label %6, label %13

6:                                                ; preds = %1
  %7 = load i32, i32* %2, align 4
  %8 = icmp sle i32 %7, 9
  br i1 %8, label %9, label %13

9:                                                ; preds = %6
  %10 = load i32, i32* %2, align 4
  %11 = add nsw i32 %10, 48
  %12 = trunc i32 %11 to i8
  store i8 %12, i8* %3, align 1
  br label %17

13:                                               ; preds = %6, %1
  %14 = load i32, i32* %2, align 4
  %15 = add nsw i32 %14, 55
  %16 = trunc i32 %15 to i8
  store i8 %16, i8* %3, align 1
  br label %17

17:                                               ; preds = %13, %9
  %18 = load i8, i8* %3, align 1
  ret i8 %18
}


!llvm.module.flags = !{!0}
!llvm.ident = !{!1}

!0 = !{i32 1, !"wchar_size", i32 4}
!1 = !{!"clang version 10.0.0-4ubuntu1 "}
